target datalayout = "e-m:e-p270:32:32-p271:32:32-p272:64:64-i64:64-i128:128-f80:128-n8:16:32:64-S128"
target triple = "x86_64-pc-linux-gnu"

@.str.16 = private unnamed_addr constant [2 x i8] c"r\00", align 1
@__const.process_doesnt_exist.state_string = private unnamed_addr constant [7 x i8] c"State:\00", align 1
@.str.22 = private unnamed_addr constant [16 x i8] c"/proc/%d/status\00", align 1
@.str.23 = private unnamed_addr constant [33 x i8] c"can't open /proc/%d/status file\0A\00", align 1
@.str.24 = private unnamed_addr constant [64 x i8] c"Could not find the 'State:' string in the /proc/%d/status file\0A\00", align 1

; Function Attrs: nounwind uwtable
define internal i32 @process_doesnt_exist(i32 noundef %0) #0 {
  %2 = alloca i32, align 4
  %3 = alloca i32, align 4
  %4 = alloca [32 x i8], align 16
  %5 = alloca [30 x i8], align 16
  %6 = alloca ptr, align 8
  %7 = alloca [7 x i8], align 1
  %8 = alloca i32, align 4
  %9 = alloca i64, align 8
  %10 = alloca ptr, align 8
  store i32 %0, ptr %3, align 4
  store ptr null, ptr %6, align 8
  call void @llvm.memcpy.p0.p0.i64(ptr align 1 %7, ptr align 1 @__const.process_doesnt_exist.state_string, i64 7, i1 false)
  %11 = getelementptr inbounds [32 x i8], ptr %4, i64 0, i64 0
  %12 = load i32, ptr %3, align 4
  %13 = call i32 (ptr, i64, ptr, ...) @snprintf(ptr noundef %11, i64 noundef 32, ptr noundef @.str.22, i32 noundef %12) #8
  %14 = getelementptr inbounds [32 x i8], ptr %4, i64 0, i64 0
  %15 = call noalias ptr @fopen64(ptr noundef %14, ptr noundef @.str.16)
  store ptr %15, ptr %6, align 8
  %16 = load ptr, ptr %6, align 8
  %17 = icmp eq ptr %16, null
  br i1 %17, label %18, label %20

18:                                               ; preds = %1
  %19 = load i32, ptr %3, align 4
  call void (ptr, ...) @print_debug(ptr noundef @.str.23, i32 noundef %19)
  store i32 1, ptr %2, align 4
  br label %74

20:                                               ; preds = %1
  store i32 0, ptr %8, align 4
  store i64 6, ptr %9, align 8
  br label %21

21:                                               ; preds = %65, %20
  %22 = getelementptr inbounds [30 x i8], ptr %5, i64 0, i64 0
  %23 = load ptr, ptr %6, align 8
  %24 = call ptr @fgets(ptr noundef %22, i32 noundef 30, ptr noundef %23)
  %25 = icmp ne ptr %24, null
  br i1 %25, label %26, label %66

26:                                               ; preds = %21
  store ptr null, ptr %10, align 8
  %27 = getelementptr inbounds [30 x i8], ptr %5, i64 0, i64 0
  %28 = getelementptr inbounds [7 x i8], ptr %7, i64 0, i64 0
  %29 = load i64, ptr %9, align 8
  %30 = call i32 @strncmp(ptr noundef %27, ptr noundef %28, i64 noundef %29) #9
  %31 = icmp eq i32 %30, 0
  br i1 %31, label %32, label %65

32:                                               ; preds = %26
  store i32 1, ptr %8, align 4
  %33 = getelementptr inbounds [30 x i8], ptr %5, i64 0, i64 0
  %34 = load i64, ptr %9, align 8
  %35 = getelementptr inbounds i8, ptr %33, i64 %34
  store ptr %35, ptr %10, align 8
  br label %36

36:                                               ; preds = %48, %32
  %37 = call ptr @__ctype_b_loc() #10
  %38 = load ptr, ptr %37, align 8
  %39 = load ptr, ptr %10, align 8
  %40 = load i8, ptr %39, align 1
  %41 = zext i8 %40 to i32
  %42 = sext i32 %41 to i64
  %43 = getelementptr inbounds i16, ptr %38, i64 %42
  %44 = load i16, ptr %43, align 2
  %45 = zext i16 %44 to i32
  %46 = and i32 %45, 8192
  %47 = icmp ne i32 %46, 0
  br i1 %47, label %48, label %51

48:                                               ; preds = %36
  %49 = load ptr, ptr %10, align 8
  %50 = getelementptr inbounds i8, ptr %49, i32 1
  store ptr %50, ptr %10, align 8
  br label %36, !llvm.loop !10

51:                                               ; preds = %36
  %52 = load ptr, ptr %10, align 8
  %53 = load i8, ptr %52, align 1
  %54 = sext i8 %53 to i32
  %55 = icmp eq i32 %54, 88
  br i1 %55, label %61, label %56

56:                                               ; preds = %51
  %57 = load ptr, ptr %10, align 8
  %58 = load i8, ptr %57, align 1
  %59 = sext i8 %58 to i32
  %60 = icmp eq i32 %59, 90
  br i1 %60, label %61, label %64

61:                                               ; preds = %56, %51
  %62 = load ptr, ptr %6, align 8
  %63 = call i32 @fclose(ptr noundef %62)
  store i32 1, ptr %2, align 4
  br label %74

64:                                               ; preds = %56
  br label %66

65:                                               ; preds = %26
  br label %21, !llvm.loop !11

66:                                               ; preds = %64, %21
  %67 = load i32, ptr %8, align 4
  %68 = icmp ne i32 %67, 0
  br i1 %68, label %71, label %69

69:                                               ; preds = %66
  %70 = load i32, ptr %3, align 4
  call void (ptr, ...) @print_error(ptr noundef @.str.24, i32 noundef %70)
  br label %71

71:                                               ; preds = %69, %66
  %72 = load ptr, ptr %6, align 8
  %73 = call i32 @fclose(ptr noundef %72)
  store i32 0, ptr %2, align 4
  br label %74

74:                                               ; preds = %71, %61, %18
  %75 = load i32, ptr %2, align 4
  ret i32 %75
}