; Function Attrs: nounwind uwtable
define internal fastcc range(i32 0, 2) i32 @process_doesnt_exist(i32 noundef %0) unnamed_addr #0 {
  %2 = alloca [32 x i8], align 16
  %3 = alloca [30 x i8], align 16
  %4 = call i32 (ptr, i64, ptr, ...) @snprintf(ptr noundef nonnull dereferenceable(1) %2, i64 noundef 32, ptr noundef nonnull @.str.22, i32 noundef %0) #16
  %5 = call noalias ptr @fopen64(ptr noundef nonnull %2, ptr noundef nonnull @.str.16)
  %6 = icmp eq ptr %5, null
  br i1 %6, label %7, label %.preheader

7:                                                ; preds = %1
  tail call void (ptr, ...) @print_debug(ptr noundef nonnull @.str.23, i32 noundef %0) #16
  br label %27

.preheader:                                       ; preds = %1, %9
  %8 = call ptr @fgets(ptr noundef nonnull %3, i32 noundef 30, ptr noundef nonnull %5)
  %.not = icmp eq ptr %8, null
  br i1 %.not, label %.critedge, label %9

9:                                                ; preds = %.preheader
  %bcmp = call i32 @bcmp(ptr noundef nonnull dereferenceable(6) %3, ptr noundef nonnull dereferenceable(6) @__const.process_doesnt_exist.state_string, i64 6)
  %10 = icmp eq i32 %bcmp, 0
  br i1 %10, label %11, label %.preheader, !llvm.loop !13

11:                                               ; preds = %9
  %12 = getelementptr inbounds i8, ptr %3, i64 6
  %13 = tail call ptr @__ctype_b_loc() #18
  %14 = load ptr, ptr %13, align 8
  br label %15

15:                                               ; preds = %15, %11
  %.0 = phi ptr [ %12, %11 ], [ %21, %15 ]
  %16 = load i8, ptr %.0, align 1
  %17 = zext i8 %16 to i64
  %18 = getelementptr inbounds i16, ptr %14, i64 %17
  %19 = load i16, ptr %18, align 2
  %20 = and i16 %19, 8192
  %.not18 = icmp eq i16 %20, 0
  %21 = getelementptr inbounds i8, ptr %.0, i64 1
  br i1 %.not18, label %22, label %15, !llvm.loop !14

22:                                               ; preds = %15
  switch i8 %16, label %25 [
    i8 88, label %23
    i8 90, label %23
  ]

23:                                               ; preds = %22, %22
  %24 = call i32 @fclose(ptr noundef nonnull %5)
  br label %27

.critedge:                                        ; preds = %.preheader
  call void (ptr, ...) @print_error(ptr noundef nonnull @.str.24, i32 noundef %0) #16
  br label %25

25:                                               ; preds = %22, %.critedge
  %26 = call i32 @fclose(ptr noundef nonnull %5)
  br label %27

27:                                               ; preds = %25, %23, %7
  %.014 = phi i32 [ 1, %7 ], [ 1, %23 ], [ 0, %25 ]
  ret i32 %.014
}